target datalayout = "e-m:e-p270:32:32-p271:32:32-p272:64:64-i64:64-i128:128-f80:128-n8:16:32:64-S128"
target triple = "x86_64-pc-linux-gnu"

; Function Attrs: nounwind uwtable
define hidden i32 @dbgsysConfigureBlocking(i32 noundef %0, i8 noundef zeroext %1) #0 {
  %3 = alloca i32, align 4
  %4 = alloca i32, align 4
  %5 = alloca i8, align 1
  %6 = alloca i32, align 4
  store i32 %0, ptr %4, align 4
  store i8 %1, ptr %5, align 1
  %7 = load i32, ptr %4, align 4
  %8 = call i32 (i32, i32, ...) @fcntl64(i32 noundef %7, i32 noundef 3)
  store i32 %8, ptr %6, align 4
  %9 = load i8, ptr %5, align 1
  %10 = zext i8 %9 to i32
  %11 = icmp eq i32 %10, 0
  br i1 %11, label %12, label %21

12:                                               ; preds = %2
  %13 = load i32, ptr %6, align 4
  %14 = and i32 %13, 2048
  %15 = icmp ne i32 %14, 0
  br i1 %15, label %21, label %16

16:                                               ; preds = %12
  %17 = load i32, ptr %4, align 4
  %18 = load i32, ptr %6, align 4
  %19 = or i32 %18, 2048
  %20 = call i32 (i32, i32, ...) @fcntl64(i32 noundef %17, i32 noundef 4, i32 noundef %19)
  store i32 %20, ptr %3, align 4
  br label %35

21:                                               ; preds = %12, %2
  %22 = load i8, ptr %5, align 1
  %23 = zext i8 %22 to i32
  %24 = icmp eq i32 %23, 1
  br i1 %24, label %25, label %34

25:                                               ; preds = %21
  %26 = load i32, ptr %6, align 4
  %27 = and i32 %26, 2048
  %28 = icmp ne i32 %27, 0
  br i1 %28, label %29, label %34

29:                                               ; preds = %25
  %30 = load i32, ptr %4, align 4
  %31 = load i32, ptr %6, align 4
  %32 = and i32 %31, -2049
  %33 = call i32 (i32, i32, ...) @fcntl64(i32 noundef %30, i32 noundef 4, i32 noundef %32)
  store i32 %33, ptr %3, align 4
  br label %35

34:                                               ; preds = %25, %21
  store i32 0, ptr %3, align 4
  br label %35

35:                                               ; preds = %34, %29, %16
  %36 = load i32, ptr %3, align 4
  ret i32 %36
}