; Function Attrs: nounwind uwtable
define hidden i32 @dbgsysConfigureBlocking(i32 noundef %0, i8 noundef zeroext %1) local_unnamed_addr #0 {
  %3 = tail call i32 (i32, i32, ...) @fcntl64(i32 noundef %0, i32 noundef 3) #11
  %4 = icmp eq i8 %1, 0
  %5 = and i32 %3, 2048
  %.not = icmp eq i32 %5, 0
  %or.cond = select i1 %4, i1 %.not, i1 false
  br i1 %or.cond, label %6, label %8

6:                                                ; preds = %2
  %7 = or disjoint i32 %3, 2048
  br label %.sink.split

8:                                                ; preds = %2
  %9 = icmp ne i8 %1, 1
  %or.cond11 = select i1 %9, i1 true, i1 %.not
  br i1 %or.cond11, label %13, label %10

10:                                               ; preds = %8
  %11 = and i32 %3, -2049
  br label %.sink.split

.sink.split:                                      ; preds = %6, %10
  %.sink = phi i32 [ %11, %10 ], [ %7, %6 ]
  %12 = tail call i32 (i32, i32, ...) @fcntl64(i32 noundef %0, i32 noundef 4, i32 noundef %.sink) #11
  br label %13

13:                                               ; preds = %.sink.split, %8
  %.0 = phi i32 [ 0, %8 ], [ %12, %.sink.split ]
  ret i32 %.0
}